#include <math.h>
#include <stdio.h>
#include <stdlib.h>
#include <string.h>

int main()
{
	int a[301], i, j, n, k=0, m, temp;
	char c;
	for(i=0;i<300;i++)
	{
		scanf("%d%c", &a[i], &c);
		if(c=='\n')
			break;
	}
	n=i+1;
	for(i=1;i<n;i++)
	{
		if(a[i-1]!=a[i])
			k=1;
	}
	if(n==1 || k==0)
		printf("No\n");
	else
	{
		for(i=0;i<n-1;i++)
		{
			m=i;
			for(j=i+1;j<n;j++)
			{
				if(a[j]>a[m])
					m=j;
			}
			if(m!=i)
			{
				temp=a[i];
				a[i]=a[m];
				a[m]=temp;
			}
		}
		for(i=1;i<n;i++)
		{
			if(a[i]!=a[i-1])
			{
				printf("%d\n", a[i]);
				break;
			}
		}
	}
	return 0;
}